target datalayout = "e-m:e-p270:32:32-p271:32:32-p272:64:64-i64:64-i128:128-f80:128-n8:16:32:64-S128"
target triple = "x86_64-unknown-linux-gnu"

%struct.BdrvChild = type { ptr, ptr, ptr, i32, ptr, i64, i64, i8, i8, %struct.anon, %struct.anon.0 }
%struct.anon = type { ptr, ptr }
%struct.anon.0 = type { ptr, ptr }
%struct.BdrvChildClass = type { i8, i8, ptr, ptr, ptr, ptr, ptr, ptr, ptr, ptr, ptr, ptr, ptr, ptr, ptr, ptr, ptr }

@.str = private unnamed_addr constant [22 x i8] c"qemu_in_main_thread()\00", align 1
@.str.1 = private unnamed_addr constant [19 x i8] c"../qemu/block/io.c\00", align 1
@__PRETTY_FUNCTION__.bdrv_parent_drained_begin_single = private unnamed_addr constant [51 x i8] c"void bdrv_parent_drained_begin_single(BdrvChild *)\00", align 1
@.str.3 = private unnamed_addr constant [20 x i8] c"!c->quiesced_parent\00", align 1

; Function Attrs: nounwind sspstrong uwtable
define dso_local void @bdrv_parent_drained_begin_single(ptr noundef %c) #0 {
entry:
  %c.addr = alloca ptr, align 8
  store ptr %c, ptr %c.addr, align 8
  br label %do.body

do.body:                                          ; preds = %entry
  %call = call zeroext i1 @qemu_in_main_thread()
  br i1 %call, label %if.then, label %if.else

if.then:                                          ; preds = %do.body
  br label %if.end

if.else:                                          ; preds = %do.body
  call void @__assert_fail(ptr noundef @.str, ptr noundef @.str.1, i32 noundef 124, ptr noundef @__PRETTY_FUNCTION__.bdrv_parent_drained_begin_single) #10
  unreachable

if.end:                                           ; preds = %if.then
  br label %do.end

do.end:                                           ; preds = %if.end
  %0 = load ptr, ptr %c.addr, align 8
  %quiesced_parent = getelementptr inbounds %struct.BdrvChild, ptr %0, i32 0, i32 8
  %1 = load i8, ptr %quiesced_parent, align 1
  %tobool = trunc i8 %1 to i1
  br i1 %tobool, label %if.else2, label %if.then1

if.then1:                                         ; preds = %do.end
  br label %if.end3

if.else2:                                         ; preds = %do.end
  call void @__assert_fail(ptr noundef @.str.3, ptr noundef @.str.1, i32 noundef 126, ptr noundef @__PRETTY_FUNCTION__.bdrv_parent_drained_begin_single) #10
  unreachable

if.end3:                                          ; preds = %if.then1
  %2 = load ptr, ptr %c.addr, align 8
  %quiesced_parent4 = getelementptr inbounds %struct.BdrvChild, ptr %2, i32 0, i32 8
  store i8 1, ptr %quiesced_parent4, align 1
  %3 = load ptr, ptr %c.addr, align 8
  %klass = getelementptr inbounds %struct.BdrvChild, ptr %3, i32 0, i32 2
  %4 = load ptr, ptr %klass, align 8
  %drained_begin = getelementptr inbounds %struct.BdrvChildClass, ptr %4, i32 0, i32 9
  %5 = load ptr, ptr %drained_begin, align 8
  %tobool5 = icmp ne ptr %5, null
  br i1 %tobool5, label %if.then6, label %if.end9

if.then6:                                         ; preds = %if.end3
  %6 = load ptr, ptr %c.addr, align 8
  %klass7 = getelementptr inbounds %struct.BdrvChild, ptr %6, i32 0, i32 2
  %7 = load ptr, ptr %klass7, align 8
  %drained_begin8 = getelementptr inbounds %struct.BdrvChildClass, ptr %7, i32 0, i32 9
  %8 = load ptr, ptr %drained_begin8, align 8
  %9 = load ptr, ptr %c.addr, align 8
  call void %8(ptr noundef %9)
  br label %if.end9

if.end9:                                          ; preds = %if.then6, %if.end3
  ret void
}