; Function Attrs: nounwind sspstrong uwtable
define dso_local void @bdrv_parent_drained_begin_single(ptr noundef %c) local_unnamed_addr #0 {
entry:
  %call = tail call zeroext i1 @qemu_in_main_thread() #15
  br i1 %call, label %do.end, label %if.else

if.else:                                          ; preds = %entry
  tail call void @__assert_fail(ptr noundef nonnull @.str, ptr noundef nonnull @.str.1, i32 noundef 124, ptr noundef nonnull @__PRETTY_FUNCTION__.bdrv_parent_drained_begin_single) #16
  unreachable

do.end:                                           ; preds = %entry
  %quiesced_parent = getelementptr inbounds nuw i8, ptr %c, i64 57
  %0 = load i8, ptr %quiesced_parent, align 1
  %tobool = trunc i8 %0 to i1
  br i1 %tobool, label %if.else2, label %if.end3

if.else2:                                         ; preds = %do.end
  tail call void @__assert_fail(ptr noundef nonnull @.str.3, ptr noundef nonnull @.str.1, i32 noundef 126, ptr noundef nonnull @__PRETTY_FUNCTION__.bdrv_parent_drained_begin_single) #16
  unreachable

if.end3:                                          ; preds = %do.end
  store i8 1, ptr %quiesced_parent, align 1
  %klass = getelementptr inbounds nuw i8, ptr %c, i64 16
  %1 = load ptr, ptr %klass, align 8
  %drained_begin = getelementptr inbounds nuw i8, ptr %1, i64 64
  %2 = load ptr, ptr %drained_begin, align 8
  %tobool5.not = icmp eq ptr %2, null
  br i1 %tobool5.not, label %if.end9, label %if.then6

if.then6:                                         ; preds = %if.end3
  tail call void %2(ptr noundef nonnull %c) #15
  br label %if.end9

if.end9:                                          ; preds = %if.then6, %if.end3
  ret void
}